; Function Attrs: nounwind uwtable
define hidden ptr @mi_new_reallocn(ptr noundef %0, i64 noundef %1, i64 noundef %2) local_unnamed_addr #3 {
  %.not = icmp eq i64 %1, 1
  br i1 %.not, label %8, label %4

4:                                                ; preds = %3
  %5 = tail call { i64, i1 } @llvm.umul.with.overflow.i64(i64 range(i64 2, 1) %1, i64 %2)
  %6 = extractvalue { i64, i1 } %5, 1
  %7 = extractvalue { i64, i1 } %5, 0
  br i1 %6, label %mi_count_size_overflow.exit, label %8, !prof !17

mi_count_size_overflow.exit:                      ; preds = %4
  tail call fastcc void @mi_try_new_handler(i1 noundef zeroext false) #20
  br label %mi_new_realloc.exit

8:                                                ; preds = %4, %3
  %storemerge.i.ph = phi i64 [ %2, %3 ], [ %7, %4 ]
  %9 = tail call align 8 ptr @llvm.threadlocal.address.p0(ptr align 8 @_mi_heap_default)
  %10 = load ptr, ptr %9, align 8, !tbaa !3
  %11 = tail call ptr @_mi_heap_realloc_zero(ptr noundef %10, ptr noundef %0, i64 noundef %storemerge.i.ph, i1 noundef zeroext false) #20
  %12 = icmp eq ptr %11, null
  br i1 %12, label %.lr.ph.i, label %mi_new_realloc.exit

.lr.ph.i:                                         ; preds = %8, %mi_try_new_handler.exit.i
  %13 = tail call ptr @_ZSt15get_new_handlerv() #20
  %.not.i = icmp eq ptr %13, null
  br i1 %.not.i, label %14, label %mi_try_new_handler.exit.i

14:                                               ; preds = %.lr.ph.i
  tail call void (i32, ptr, ...) @_mi_error_message(i32 noundef 12, ptr noundef nonnull @.str.4) #19
  tail call void @abort() #21
  unreachable

mi_try_new_handler.exit.i:                        ; preds = %.lr.ph.i
  tail call void %13() #19
  %15 = load ptr, ptr %9, align 8, !tbaa !3
  %16 = tail call ptr @_mi_heap_realloc_zero(ptr noundef %15, ptr noundef %0, i64 noundef %storemerge.i.ph, i1 noundef zeroext false) #20
  %17 = icmp eq ptr %16, null
  br i1 %17, label %.lr.ph.i, label %mi_new_realloc.exit, !llvm.loop !40

mi_new_realloc.exit:                              ; preds = %mi_try_new_handler.exit.i, %8, %mi_count_size_overflow.exit
  %.0 = phi ptr [ null, %mi_count_size_overflow.exit ], [ %11, %8 ], [ %16, %mi_try_new_handler.exit.i ]
  ret ptr %.0
}